Certificate:
    Data:
        Version: 3 (0x2)
        Serial Number:
            7b:14:79:76:a8:18:32:b7:2c:9f:50:52:09:2b:44:81:68:f1:22:6d
        Signature Algorithm: sha256WithRSAEncryption
        Issuer: C=US, ST=FL, L=Tampa, O=Self, OU=Self, CN=Will Mo, emailAddress=willmo90@yahoo.com
        Validity
            Not Before: Sep 27 23:08:08 2025 GMT
            Not After : Oct 27 23:08:08 2025 GMT
        Subject: C=US, ST=FL, L=Tampa, O=Self, OU=Self, CN=Will Mo, emailAddress=willmo90@yahoo.com
        Subject Public Key Info:
            Public Key Algorithm: rsaEncryption
                Public-Key: (2048 bit)
                Modulus:
                    00:c2:8f:b4:6c:b2:e6:17:51:b7:da:bb:f3:83:dc:
                    bc:ed:40:c1:e8:32:eb:cf:10:03:96:2c:cf:1e:ff:
                    09:96:78:92:74:3d:97:e3:dc:35:01:3d:71:9c:93:
                    81:ad:57:17:7a:65:5c:50:6c:cd:23:29:66:7f:9e:
                    a1:6d:9d:c2:82:d2:6f:36:ea:4f:c4:c3:e2:bb:a7:
                    f8:57:da:3a:ec:6c:88:3f:4c:99:81:af:10:60:8b:
                    b7:ae:6c:20:82:1f:45:85:82:cd:9e:54:5c:7b:11:
                    82:34:69:d1:78:de:a7:1f:43:f1:58:64:cd:34:47:
                    0b:68:3c:ba:c0:d9:7f:53:7d:63:45:59:87:e0:33:
                    4b:72:09:06:5a:40:fd:a2:38:67:99:ea:a9:5d:73:
                    61:19:90:14:03:8b:b3:ca:dc:9f:95:89:d0:b8:a7:
                    97:7d:f3:8a:f7:af:6b:80:43:c9:04:fd:71:9e:07:
                    76:61:19:18:0d:85:c8:b8:49:2a:d4:ac:25:dc:c7:
                    e8:e4:79:23:9b:80:cc:c8:ea:5a:0d:53:b1:0d:bf:
                    9a:ab:ab:b8:1f:79:ca:68:71:1f:ed:58:8a:e0:d3:
                    bf:aa:af:a8:57:4f:b7:e7:13:86:5d:c8:79:20:8a:
                    a3:e8:88:40:3e:5e:69:6c:7e:d5:6c:a1:89:53:4d:
                    ee:03
                Exponent: 65537 (0x10001)
        X509v3 extensions:
            X509v3 Subject Key Identifier: 
                8A:45:F2:39:B3:DA:26:11:C3:D6:58:0F:FD:AD:AD:E7:61:D7:B6:56
            X509v3 Authority Key Identifier: 
                8A:45:F2:39:B3:DA:26:11:C3:D6:58:0F:FD:AD:AD:E7:61:D7:B6:56
            X509v3 Basic Constraints: critical
                CA:TRUE
    Signature Algorithm: sha256WithRSAEncryption
    Signature Value:
        65:80:7f:8b:c8:55:44:1a:59:2e:bb:f8:34:c2:df:6e:13:b4:
        df:5c:20:62:9c:1f:a1:56:63:c2:aa:dd:16:b8:44:d0:37:63:
        f4:62:3c:68:6b:9c:02:0d:80:30:56:6b:91:82:75:7e:d8:bd:
        27:bc:a8:aa:f3:3b:72:59:02:a5:f4:33:72:08:8a:01:7a:65:
        e9:d3:29:60:5c:7c:11:eb:4f:01:71:4d:56:1c:01:92:f8:61:
        23:20:12:90:5e:64:02:d6:7a:37:90:4d:cf:43:42:0e:6e:90:
        d8:e4:76:0e:62:93:42:36:d6:0d:88:4a:6f:35:1a:23:6b:5e:
        9f:4d:ac:28:c1:59:4f:42:73:36:f0:41:8d:1a:ff:8c:da:e8:
        4d:82:48:5e:05:8a:83:eb:92:cd:50:f6:2b:ee:cf:d1:a3:b0:
        f5:e4:ca:b1:8e:d9:65:aa:bb:90:49:39:94:13:70:e6:6f:87:
        3d:bc:c8:4f:07:37:15:10:5e:79:2e:33:0b:37:67:3d:73:95:
        22:00:67:58:e3:68:5a:bd:6f:e3:ac:08:db:bf:14:2e:ec:03:
        9b:b5:f3:fe:3b:c6:de:f4:ae:a7:0c:39:8d:dd:39:9e:2c:d9:
        f3:ba:75:70:f1:25:0c:26:e8:17:5d:ad:02:ef:05:0a:77:78:
        a9:d4:6b:ae
-----BEGIN CERTIFICATE-----
MIID2zCCAsOgAwIBAgIUexR5dqgYMrcsn1BSCStEgWjxIm0wDQYJKoZIhvcNAQEL
BQAwfTELMAkGA1UEBhMCVVMxCzAJBgNVBAgMAkZMMQ4wDAYDVQQHDAVUYW1wYTEN
MAsGA1UECgwEU2VsZjENMAsGA1UECwwEU2VsZjEQMA4GA1UEAwwHV2lsbCBNbzEh
MB8GCSqGSIb3DQEJARYSd2lsbG1vOTBAeWFob28uY29tMB4XDTI1MDkyNzIzMDgw
OFoXDTI1MTAyNzIzMDgwOFowfTELMAkGA1UEBhMCVVMxCzAJBgNVBAgMAkZMMQ4w
DAYDVQQHDAVUYW1wYTENMAsGA1UECgwEU2VsZjENMAsGA1UECwwEU2VsZjEQMA4G
A1UEAwwHV2lsbCBNbzEhMB8GCSqGSIb3DQEJARYSd2lsbG1vOTBAeWFob28uY29t
MIIBIjANBgkqhkiG9w0BAQEFAAOCAQ8AMIIBCgKCAQEAwo+0bLLmF1G32rvzg9y8
7UDB6DLrzxADlizPHv8JlniSdD2X49w1AT1xnJOBrVcXemVcUGzNIylmf56hbZ3C
gtJvNupPxMPiu6f4V9o67GyIP0yZga8QYIu3rmwggh9FhYLNnlRcexGCNGnReN6n
H0PxWGTNNEcLaDy6wNl/U31jRVmH4DNLcgkGWkD9ojhnmeqpXXNhGZAUA4uzytyf
lYnQuKeXffOK969rgEPJBP1xngd2YRkYDYXIuEkq1Kwl3Mfo5Hkjm4DMyOpaDVOx
Db+aq6u4H3nKaHEf7ViK4NO/qq+oV0+35xOGXch5IIqj6IhAPl5pbH7VbKGJU03u
AwIDAQABo1MwUTAdBgNVHQ4EFgQUikXyObPaJhHD1lgP/a2t52HXtlYwHwYDVR0j
BBgwFoAUikXyObPaJhHD1lgP/a2t52HXtlYwDwYDVR0TAQH/BAUwAwEB/zANBgkq
hkiG9w0BAQsFAAOCAQEAZYB/i8hVRBpZLrv4NMLfbhO031wgYpwfoVZjwqrdFrhE
0Ddj9GI8aGucAg2AMFZrkYJ1fti9J7yoqvM7clkCpfQzcgiKAXpl6dMpYFx8EetP
AXFNVhwBkvhhIyASkF5kAtZ6N5BNz0NCDm6Q2OR2DmKTQjbWDYhKbzUaI2ten02s
KMFZT0JzNvBBjRr/jNroTYJIXgWKg+uSzVD2K+7P0aOw9eTKsY7ZZaq7kEk5lBNw
5m+HPbzITwc3FRBeeS4zCzdnPXOVIgBnWONoWr1v46wI278ULuwDm7Xz/jvG3vSu
pww5jd05nizZ87p1cPElDCboF12tAu8FCnd4qdRrrg==
-----END CERTIFICATE-----
